target datalayout = "e-m:e-p270:32:32-p271:32:32-p272:64:64-i64:64-i128:128-f80:128-n8:16:32:64-S128"
target triple = "x86_64-pc-linux-gnu"

@.str.66 = private unnamed_addr constant [14 x i8] c"UNKNOWN_VALUE\00", align 1
@.str.67 = private unnamed_addr constant [28 x i8] c"MBEDTLS_SSL_VERSION_UNKNOWN\00", align 1
@.str.68 = private unnamed_addr constant [27 x i8] c"MBEDTLS_SSL_VERSION_TLS1_2\00", align 1
@.str.69 = private unnamed_addr constant [27 x i8] c"MBEDTLS_SSL_VERSION_TLS1_3\00", align 1

; Function Attrs: nounwind uwtable
define hidden ptr @mbedtls_ssl_protocol_version_str(i32 noundef %0) #0 {
  %2 = alloca ptr, align 8
  %3 = alloca i32, align 4
  store i32 %0, ptr %3, align 4, !tbaa !7
  %4 = load i32, ptr %3, align 4, !tbaa !7
  switch i32 %4, label %8 [
    i32 0, label %5
    i32 771, label %6
    i32 772, label %7
  ]

5:                                                ; preds = %1
  store ptr @.str.67, ptr %2, align 8
  br label %9

6:                                                ; preds = %1
  store ptr @.str.68, ptr %2, align 8
  br label %9

7:                                                ; preds = %1
  store ptr @.str.69, ptr %2, align 8
  br label %9

8:                                                ; preds = %1
  store ptr @.str.66, ptr %2, align 8
  br label %9

9:                                                ; preds = %8, %7, %6, %5
  %10 = load ptr, ptr %2, align 8
  ret ptr %10
}