; Function Attrs: mustprogress nofree norecurse nosync nounwind willreturn memory(none) uwtable
define hidden noundef nonnull ptr @mbedtls_ssl_protocol_version_str(i32 noundef %0) local_unnamed_addr #0 {
  switch i32 %0, label %4 [
    i32 0, label %5
    i32 771, label %2
    i32 772, label %3
  ]

2:                                                ; preds = %1
  br label %5

3:                                                ; preds = %1
  br label %5

4:                                                ; preds = %1
  br label %5

5:                                                ; preds = %1, %4, %3, %2
  %.0 = phi ptr [ @.str.66, %4 ], [ @.str.69, %3 ], [ @.str.68, %2 ], [ @.str.67, %1 ]
  ret ptr %.0
}